target datalayout = "e-m:e-p270:32:32-p271:32:32-p272:64:64-i64:64-i128:128-f80:128-n8:16:32:64-S128"
target triple = "x86_64-pc-linux-gnu"

%struct.glslang_input_s = type { i32, i32, i32, i32, i32, i32, ptr, i32, i32, i32, i32, i32, ptr, %struct.glsl_include_callbacks_s, ptr }
%struct.glsl_include_callbacks_s = type { ptr, ptr, ptr }
%struct.glslang_shader_s = type { ptr, %"class.std::__cxx11::basic_string" }
%"class.std::__cxx11::basic_string" = type { %"struct.std::__cxx11::basic_string<char>::_Alloc_hider", i64, %union.anon }
%"struct.std::__cxx11::basic_string<char>::_Alloc_hider" = type { ptr }
%union.anon = type { i64, [8 x i8] }
%"class.glslang::TShader::Includer" = type { ptr }
%"class.glslang::TShader::ForbidIncluder" = type { %"class.glslang::TShader::Includer" }

; Function Attrs: mustprogress nounwind uwtable
define linkonce_odr void @_ZN7glslang7TShader8IncluderD2Ev(ptr noundef nonnull align 8 dereferenceable(8) %0) unnamed_addr #0 comdat align 2 {
  %2 = alloca ptr, align 8
  store ptr %0, ptr %2, align 8
  ret void
}

; Function Attrs: mustprogress nounwind uwtable
define linkonce_odr void @_ZN7glslang7TShader8IncluderC2Ev(ptr noundef nonnull align 8 dereferenceable(8) %0) unnamed_addr #0 comdat align 2 {
  %2 = alloca ptr, align 8
  store ptr %0, ptr %2, align 8
  %3 = load ptr, ptr %2, align 8
  store ptr getelementptr inbounds inrange(-16, 40) ({ [7 x ptr] }, ptr @_ZTVN7glslang7TShader8IncluderE, i32 0, i32 0, i32 2), ptr %3, align 8
  ret void
}

; Function Attrs: mustprogress nounwind uwtable
define linkonce_odr void @_ZN7glslang7TShader14ForbidIncluderD2Ev(ptr noundef nonnull align 8 dereferenceable(8) %0) unnamed_addr #0 comdat align 2 {
  %2 = alloca ptr, align 8
  store ptr %0, ptr %2, align 8
  %3 = load ptr, ptr %2, align 8
  call void @_ZN7glslang7TShader8IncluderD2Ev(ptr noundef nonnull align 8 dereferenceable(8) %3) #11
  ret void
}

; Function Attrs: mustprogress nounwind uwtable
define linkonce_odr void @_ZN7glslang7TShader14ForbidIncluderC2Ev(ptr noundef nonnull align 8 dereferenceable(8) %0) unnamed_addr #0 comdat align 2 {
  %2 = alloca ptr, align 8
  store ptr %0, ptr %2, align 8
  %3 = load ptr, ptr %2, align 8
  call void @_ZN7glslang7TShader8IncluderC2Ev(ptr noundef nonnull align 8 dereferenceable(8) %3) #11
  store ptr getelementptr inbounds inrange(-16, 40) ({ [7 x ptr] }, ptr @_ZTVN7glslang7TShader14ForbidIncluderE, i32 0, i32 0, i32 2), ptr %3, align 8
  ret void
}

; Function Attrs: mustprogress nounwind uwtable
define linkonce_odr noundef zeroext i1 @_ZN7glslang7TShader5parseEPK16TBuiltInResourcei8EProfilebb11EShMessages(ptr noundef nonnull align 8 dereferenceable(165) %0, ptr noundef %1, i32 noundef %2, i32 noundef %3, i1 noundef zeroext %4, i1 noundef zeroext %5, i32 noundef %6) #0 comdat align 2 {
  %8 = alloca ptr, align 8
  %9 = alloca ptr, align 8
  %10 = alloca i32, align 4
  %11 = alloca i32, align 4
  %12 = alloca i8, align 1
  %13 = alloca i8, align 1
  %14 = alloca i32, align 4
  %15 = alloca %"class.glslang::TShader::ForbidIncluder", align 8
  store ptr %0, ptr %8, align 8
  store ptr %1, ptr %9, align 8
  store i32 %2, ptr %10, align 4
  store i32 %3, ptr %11, align 4
  %16 = zext i1 %4 to i8
  store i8 %16, ptr %12, align 1
  %17 = zext i1 %5 to i8
  store i8 %17, ptr %13, align 1
  store i32 %6, ptr %14, align 4
  %18 = load ptr, ptr %8, align 8
  call void @_ZN7glslang7TShader14ForbidIncluderC2Ev(ptr noundef nonnull align 8 dereferenceable(8) %15) #11
  %19 = load ptr, ptr %9, align 8
  %20 = load i32, ptr %10, align 4
  %21 = load i32, ptr %11, align 4
  %22 = load i8, ptr %12, align 1
  %23 = trunc i8 %22 to i1
  %24 = load i8, ptr %13, align 1
  %25 = trunc i8 %24 to i1
  %26 = load i32, ptr %14, align 4
  %27 = call noundef zeroext i1 @_ZN7glslang7TShader5parseEPK16TBuiltInResourcei8EProfilebb11EShMessagesRNS0_8IncluderE(ptr noundef nonnull align 8 dereferenceable(165) %18, ptr noundef %19, i32 noundef %20, i32 noundef %21, i1 noundef zeroext %23, i1 noundef zeroext %25, i32 noundef %26, ptr noundef nonnull align 8 dereferenceable(8) %15)
  call void @_ZN7glslang7TShader14ForbidIncluderD2Ev(ptr noundef nonnull align 8 dereferenceable(8) %15) #11
  ret i1 %27
}

; Function Attrs: mustprogress nounwind uwtable
define linkonce_odr noundef zeroext i1 @_ZN7glslang7TShader5parseEPK16TBuiltInResourceib11EShMessages(ptr noundef nonnull align 8 dereferenceable(165) %0, ptr noundef %1, i32 noundef %2, i1 noundef zeroext %3, i32 noundef %4) #0 comdat align 2 {
  %6 = alloca ptr, align 8
  %7 = alloca ptr, align 8
  %8 = alloca i32, align 4
  %9 = alloca i8, align 1
  %10 = alloca i32, align 4
  store ptr %0, ptr %6, align 8
  store ptr %1, ptr %7, align 8
  store i32 %2, ptr %8, align 4
  %11 = zext i1 %3 to i8
  store i8 %11, ptr %9, align 1
  store i32 %4, ptr %10, align 4
  %12 = load ptr, ptr %6, align 8
  %13 = load ptr, ptr %7, align 8
  %14 = load i32, ptr %8, align 4
  %15 = load i8, ptr %9, align 1
  %16 = trunc i8 %15 to i1
  %17 = load i32, ptr %10, align 4
  %18 = call noundef zeroext i1 @_ZN7glslang7TShader5parseEPK16TBuiltInResourcei8EProfilebb11EShMessages(ptr noundef nonnull align 8 dereferenceable(165) %12, ptr noundef %13, i32 noundef %14, i32 noundef 1, i1 noundef zeroext false, i1 noundef zeroext %16, i32 noundef %17)
  ret i1 %18
}

; Function Attrs: mustprogress nounwind uwtable
define internal noundef i32 @_ZL17c_shader_messages18glslang_messages_t(i32 noundef %0) #0 {
  %2 = alloca i32, align 4
  %3 = alloca i32, align 4
  store i32 %0, ptr %2, align 4
  store i32 0, ptr %3, align 4
  %4 = load i32, ptr %2, align 4
  %5 = and i32 %4, 1
  %6 = icmp eq i32 %5, 1
  br i1 %6, label %7, label %10

7:                                                ; preds = %1
  %8 = load i32, ptr %3, align 4
  %9 = or i32 %8, 1
  store i32 %9, ptr %3, align 4
  br label %10

10:                                               ; preds = %7, %1
  %11 = load i32, ptr %2, align 4
  %12 = and i32 %11, 2
  %13 = icmp eq i32 %12, 2
  br i1 %13, label %14, label %17

14:                                               ; preds = %10
  %15 = load i32, ptr %3, align 4
  %16 = or i32 %15, 2
  store i32 %16, ptr %3, align 4
  br label %17

17:                                               ; preds = %14, %10
  %18 = load i32, ptr %2, align 4
  %19 = and i32 %18, 4
  %20 = icmp eq i32 %19, 4
  br i1 %20, label %21, label %24

21:                                               ; preds = %17
  %22 = load i32, ptr %3, align 4
  %23 = or i32 %22, 4
  store i32 %23, ptr %3, align 4
  br label %24

24:                                               ; preds = %21, %17
  %25 = load i32, ptr %2, align 4
  %26 = and i32 %25, 8
  %27 = icmp eq i32 %26, 8
  br i1 %27, label %28, label %31

28:                                               ; preds = %24
  %29 = load i32, ptr %3, align 4
  %30 = or i32 %29, 8
  store i32 %30, ptr %3, align 4
  br label %31

31:                                               ; preds = %28, %24
  %32 = load i32, ptr %2, align 4
  %33 = and i32 %32, 16
  %34 = icmp eq i32 %33, 16
  br i1 %34, label %35, label %38

35:                                               ; preds = %31
  %36 = load i32, ptr %3, align 4
  %37 = or i32 %36, 16
  store i32 %37, ptr %3, align 4
  br label %38

38:                                               ; preds = %35, %31
  %39 = load i32, ptr %2, align 4
  %40 = and i32 %39, 32
  %41 = icmp eq i32 %40, 32
  br i1 %41, label %42, label %45

42:                                               ; preds = %38
  %43 = load i32, ptr %3, align 4
  %44 = or i32 %43, 32
  store i32 %44, ptr %3, align 4
  br label %45

45:                                               ; preds = %42, %38
  %46 = load i32, ptr %2, align 4
  %47 = and i32 %46, 64
  %48 = icmp eq i32 %47, 64
  br i1 %48, label %49, label %52

49:                                               ; preds = %45
  %50 = load i32, ptr %3, align 4
  %51 = or i32 %50, 64
  store i32 %51, ptr %3, align 4
  br label %52

52:                                               ; preds = %49, %45
  %53 = load i32, ptr %2, align 4
  %54 = and i32 %53, 128
  %55 = icmp eq i32 %54, 128
  br i1 %55, label %56, label %59

56:                                               ; preds = %52
  %57 = load i32, ptr %3, align 4
  %58 = or i32 %57, 128
  store i32 %58, ptr %3, align 4
  br label %59

59:                                               ; preds = %56, %52
  %60 = load i32, ptr %2, align 4
  %61 = and i32 %60, 256
  %62 = icmp eq i32 %61, 256
  br i1 %62, label %63, label %66

63:                                               ; preds = %59
  %64 = load i32, ptr %3, align 4
  %65 = or i32 %64, 256
  store i32 %65, ptr %3, align 4
  br label %66

66:                                               ; preds = %63, %59
  %67 = load i32, ptr %2, align 4
  %68 = and i32 %67, 512
  %69 = icmp eq i32 %68, 512
  br i1 %69, label %70, label %73

70:                                               ; preds = %66
  %71 = load i32, ptr %3, align 4
  %72 = or i32 %71, 512
  store i32 %72, ptr %3, align 4
  br label %73

73:                                               ; preds = %70, %66
  %74 = load i32, ptr %2, align 4
  %75 = and i32 %74, 1024
  %76 = icmp eq i32 %75, 1024
  br i1 %76, label %77, label %80

77:                                               ; preds = %73
  %78 = load i32, ptr %3, align 4
  %79 = or i32 %78, 1024
  store i32 %79, ptr %3, align 4
  br label %80

80:                                               ; preds = %77, %73
  %81 = load i32, ptr %2, align 4
  %82 = and i32 %81, 2048
  %83 = icmp eq i32 %82, 2048
  br i1 %83, label %84, label %87

84:                                               ; preds = %80
  %85 = load i32, ptr %3, align 4
  %86 = or i32 %85, 2048
  store i32 %86, ptr %3, align 4
  br label %87

87:                                               ; preds = %84, %80
  %88 = load i32, ptr %2, align 4
  %89 = and i32 %88, 4096
  %90 = icmp eq i32 %89, 4096
  br i1 %90, label %91, label %94

91:                                               ; preds = %87
  %92 = load i32, ptr %3, align 4
  %93 = or i32 %92, 4096
  store i32 %93, ptr %3, align 4
  br label %94

94:                                               ; preds = %91, %87
  %95 = load i32, ptr %2, align 4
  %96 = and i32 %95, 8192
  %97 = icmp eq i32 %96, 8192
  br i1 %97, label %98, label %101

98:                                               ; preds = %94
  %99 = load i32, ptr %3, align 4
  %100 = or i32 %99, 8192
  store i32 %100, ptr %3, align 4
  br label %101

101:                                              ; preds = %98, %94
  %102 = load i32, ptr %2, align 4
  %103 = and i32 %102, 16384
  %104 = icmp eq i32 %103, 16384
  br i1 %104, label %105, label %108

105:                                              ; preds = %101
  %106 = load i32, ptr %3, align 4
  %107 = or i32 %106, 16384
  store i32 %107, ptr %3, align 4
  br label %108

108:                                              ; preds = %105, %101
  %109 = load i32, ptr %2, align 4
  %110 = and i32 %109, 65536
  %111 = icmp eq i32 %110, 65536
  br i1 %111, label %112, label %115

112:                                              ; preds = %108
  %113 = load i32, ptr %3, align 4
  %114 = or i32 %113, 65536
  store i32 %114, ptr %3, align 4
  br label %115

115:                                              ; preds = %112, %108
  %116 = load i32, ptr %3, align 4
  ret i32 %116
}

; Function Attrs: mustprogress nounwind uwtable
define i32 @glslang_shader_parse(ptr noundef %0, ptr noundef %1) #0 {
  %3 = alloca ptr, align 8
  %4 = alloca ptr, align 8
  %5 = alloca ptr, align 8
  store ptr %0, ptr %3, align 8
  store ptr %1, ptr %4, align 8
  %6 = load ptr, ptr %3, align 8
  %7 = getelementptr inbounds %struct.glslang_shader_s, ptr %6, i32 0, i32 1
  %8 = call noundef ptr @_ZNKSt7__cxx1112basic_stringIcSt11char_traitsIcESaIcEE5c_strEv(ptr noundef nonnull align 8 dereferenceable(32) %7) #11
  store ptr %8, ptr %5, align 8
  %9 = load ptr, ptr %3, align 8
  %10 = getelementptr inbounds %struct.glslang_shader_s, ptr %9, i32 0, i32 0
  %11 = load ptr, ptr %10, align 8
  call void @_ZN7glslang7TShader10setStringsEPKPKci(ptr noundef nonnull align 8 dereferenceable(165) %11, ptr noundef %5, i32 noundef 1)
  %12 = load ptr, ptr %3, align 8
  %13 = getelementptr inbounds %struct.glslang_shader_s, ptr %12, i32 0, i32 0
  %14 = load ptr, ptr %13, align 8
  %15 = load ptr, ptr %4, align 8
  %16 = getelementptr inbounds %struct.glslang_input_s, ptr %15, i32 0, i32 12
  %17 = load ptr, ptr %16, align 8
  %18 = load ptr, ptr %4, align 8
  %19 = getelementptr inbounds %struct.glslang_input_s, ptr %18, i32 0, i32 7
  %20 = load i32, ptr %19, align 8
  %21 = load ptr, ptr %4, align 8
  %22 = getelementptr inbounds %struct.glslang_input_s, ptr %21, i32 0, i32 10
  %23 = load i32, ptr %22, align 4
  %24 = icmp ne i32 %23, 0
  %25 = load ptr, ptr %4, align 8
  %26 = getelementptr inbounds %struct.glslang_input_s, ptr %25, i32 0, i32 11
  %27 = load i32, ptr %26, align 8
  %28 = call noundef i32 @_ZL17c_shader_messages18glslang_messages_t(i32 noundef %27)
  %29 = call noundef zeroext i1 @_ZN7glslang7TShader5parseEPK16TBuiltInResourceib11EShMessages(ptr noundef nonnull align 8 dereferenceable(165) %14, ptr noundef %17, i32 noundef %20, i1 noundef zeroext %24, i32 noundef %28)
  %30 = zext i1 %29 to i32
  ret i32 %30
}