; Function Attrs: mustprogress nounwind uwtable
define range(i32 0, 2) i32 @glslang_shader_parse(ptr noundef %0, ptr nocapture noundef readonly %1) local_unnamed_addr #0 {
  %3 = alloca %"class.glslang::TShader::ForbidIncluder", align 8
  %4 = alloca ptr, align 8
  %5 = getelementptr inbounds i8, ptr %0, i64 8
  %6 = tail call noundef ptr @_ZNKSt7__cxx1112basic_stringIcSt11char_traitsIcESaIcEE5c_strEv(ptr noundef nonnull align 8 dereferenceable(32) %5) #15
  store ptr %6, ptr %4, align 8
  %7 = load ptr, ptr %0, align 8
  call void @_ZN7glslang7TShader10setStringsEPKPKci(ptr noundef nonnull align 8 dereferenceable(165) %7, ptr noundef nonnull %4, i32 noundef 1) #15
  %8 = load ptr, ptr %0, align 8
  %9 = getelementptr inbounds i8, ptr %1, i64 56
  %10 = load ptr, ptr %9, align 8
  %11 = getelementptr inbounds i8, ptr %1, i64 32
  %12 = load i32, ptr %11, align 8
  %13 = getelementptr inbounds i8, ptr %1, i64 44
  %14 = load i32, ptr %13, align 4
  %15 = icmp ne i32 %14, 0
  %16 = getelementptr inbounds i8, ptr %1, i64 48
  %17 = load i32, ptr %16, align 8
  %.15.i = and i32 %17, 98303
  call void @llvm.lifetime.start.p0(i64 8, ptr nonnull %3)
  store ptr getelementptr inbounds inrange(-16, 40) (i8, ptr @_ZTVN7glslang7TShader14ForbidIncluderE, i64 16), ptr %3, align 8
  %18 = call noundef zeroext i1 @_ZN7glslang7TShader5parseEPK16TBuiltInResourcei8EProfilebb11EShMessagesRNS0_8IncluderE(ptr noundef nonnull align 8 dereferenceable(165) %8, ptr noundef %10, i32 noundef %12, i32 noundef 1, i1 noundef zeroext false, i1 noundef zeroext %15, i32 noundef %.15.i, ptr noundef nonnull align 8 dereferenceable(8) %3) #15
  call void @llvm.lifetime.end.p0(i64 8, ptr nonnull %3)
  %19 = zext i1 %18 to i32
  ret i32 %19
}